target datalayout = "e-m:e-p270:32:32-p271:32:32-p272:64:64-i64:64-i128:128-f80:128-n8:16:32:64-S128"
target triple = "x86_64-pc-linux-gnu"

%class.G1RootProcessor = type { ptr, %class.SubTasksDone, %class.StrongRootsScope, %class.OopStorageSetStrongParState }
%class.SubTasksDone = type <{ ptr, i32, [4 x i8] }>
%class.StrongRootsScope = type { i32 }
%class.OopStorageSetStrongParState = type { %class.OopStorageSetParState }
%class.OopStorageSetParState = type { %struct.ValueObjArray }
%struct.ValueObjArray = type { [5 x ptr], %class.ValueObjBlock }
%class.ValueObjBlock = type { %"class.OopStorage::ParState", %class.ValueObjBlock.7 }
%"class.OopStorage::ParState" = type { %"class.OopStorage::BasicParState" }
%"class.OopStorage::BasicParState" = type { ptr, ptr, i64, i64, i32, i8, i64 }
%class.ValueObjBlock.7 = type { %"class.OopStorage::ParState", %class.ValueObjBlock.8 }
%class.ValueObjBlock.8 = type { %"class.OopStorage::ParState", %class.ValueObjBlock.9 }
%class.ValueObjBlock.9 = type { %"class.OopStorage::ParState", %class.ValueObjBlock.10 }
%class.ValueObjBlock.10 = type <{ %"class.OopStorage::ParState", %class.ValueObjBlock.11, [7 x i8] }>
%class.ValueObjBlock.11 = type { i8 }
%class.EnumRange = type { i32, i32 }
%class.EnumIterator = type { i32 }
%"class.OopStorageSet::Iterator" = type { %class.EnumIterator }
%"class.OopStorageSet::Range" = type { %class.EnumRange }

; Function Attrs: mustprogress nounwind uwtable
define linkonce_odr hidden void @_ZNK12EnumIteratorIN13OopStorageSet8StrongIdEE16assert_in_boundsEv(ptr noundef nonnull align 4 dereferenceable(4) %0) #1 comdat align 2 {
  %2 = alloca ptr, align 8
  store ptr %0, ptr %2, align 8
  ret void
}

; Function Attrs: mustprogress nounwind uwtable
define linkonce_odr hidden noundef i32 @_ZN20PrimitiveConversions4castIjjTnNSt9enable_ifIXcvbeqstT_stT0_EiE4typeELi0ETnNS1_IXcvbsr3std11is_integralIS2_EE5valueEiE4typeELi0ETnNS1_IXcvbsr3std11is_integralIS3_EE5valueEiE4typeELi0EEES2_S3_(i32 noundef %0) #1 comdat align 2 {
  %2 = alloca i32, align 4
  store i32 %0, ptr %2, align 4
  %3 = load i32, ptr %2, align 4
  ret i32 %3
}

; Function Attrs: mustprogress nounwind uwtable
define linkonce_odr hidden noundef nonnull align 4 dereferenceable(4) ptr @_ZN12EnumIteratorIN13OopStorageSet8StrongIdEEppEv(ptr noundef nonnull align 4 dereferenceable(4) %0) #1 comdat align 2 {
  %2 = alloca ptr, align 8
  store ptr %0, ptr %2, align 8
  %3 = load ptr, ptr %2, align 8
  call void @_ZNK12EnumIteratorIN13OopStorageSet8StrongIdEE16assert_in_boundsEv(ptr noundef nonnull align 4 dereferenceable(4) %3)
  %4 = getelementptr inbounds %class.EnumIterator, ptr %3, i32 0, i32 0
  %5 = load i32, ptr %4, align 4
  %6 = add i32 %5, 1
  store i32 %6, ptr %4, align 4
  ret ptr %3
}

; Function Attrs: mustprogress nounwind uwtable
define linkonce_odr hidden noundef ptr @_ZN13OopStorageSet7storageENS_8StrongIdE(i32 noundef %0) #1 comdat align 2 {
  %2 = alloca i32, align 4
  store i32 %0, ptr %2, align 4
  %3 = load i32, ptr %2, align 4
  %4 = call noundef ptr @_ZN13OopStorageSet11get_storageINS_8StrongIdEEEP10OopStorageT_(i32 noundef %3)
  ret ptr %4
}

; Function Attrs: mustprogress nounwind uwtable
define linkonce_odr hidden noundef i32 @_ZNK12EnumIteratorIN13OopStorageSet8StrongIdEEdeEv(ptr noundef nonnull align 4 dereferenceable(4) %0) #1 comdat align 2 {
  %2 = alloca ptr, align 8
  store ptr %0, ptr %2, align 8
  %3 = load ptr, ptr %2, align 8
  call void @_ZNK12EnumIteratorIN13OopStorageSet8StrongIdEE16assert_in_boundsEv(ptr noundef nonnull align 4 dereferenceable(4) %3)
  %4 = getelementptr inbounds %class.EnumIterator, ptr %3, i32 0, i32 0
  %5 = load i32, ptr %4, align 4
  %6 = call noundef i32 @_ZN19EnumIterationTraitsIN13OopStorageSet8StrongIdEE10enumeratorEj(i32 noundef %5)
  ret i32 %6
}

; Function Attrs: mustprogress nounwind uwtable
define linkonce_odr hidden void @_ZN19EnumIterationTraitsIN13OopStorageSet8StrongIdEE15assert_in_rangeIS1_EEvT_S4_S4_(i32 noundef %0, i32 noundef %1, i32 noundef %2) #1 comdat align 2 {
  %4 = alloca i32, align 4
  %5 = alloca i32, align 4
  %6 = alloca i32, align 4
  store i32 %0, ptr %4, align 4
  store i32 %1, ptr %5, align 4
  store i32 %2, ptr %6, align 4
  ret void
}

; Function Attrs: mustprogress nounwind uwtable
define linkonce_odr hidden noundef i32 @_ZN20PrimitiveConversions4castIN13OopStorageSet8StrongIdEjTnNSt9enable_ifIXcvbcl10check_castIT_T0_EEEiE4typeELi0ETnNS3_IXcvbsr3std7is_enumIS4_EE5valueEiE4typeELi0EEES4_S5_(i32 noundef %0) #1 comdat align 2 {
  %2 = alloca i32, align 4
  store i32 %0, ptr %2, align 4
  %3 = load i32, ptr %2, align 4
  %4 = call noundef i32 @_ZN20PrimitiveConversions4castIjjTnNSt9enable_ifIXcvbeqstT_stT0_EiE4typeELi0ETnNS1_IXcvbsr3std11is_integralIS2_EE5valueEiE4typeELi0ETnNS1_IXcvbsr3std11is_integralIS3_EE5valueEiE4typeELi0EEES2_S3_(i32 noundef %3)
  ret i32 %4
}

; Function Attrs: mustprogress nounwind uwtable
define linkonce_odr hidden noundef i32 @_ZN19EnumIterationTraitsIN13OopStorageSet8StrongIdEE16underlying_valueES1_(i32 noundef %0) #1 comdat align 2 {
  %2 = alloca i32, align 4
  store i32 %0, ptr %2, align 4
  %3 = load i32, ptr %2, align 4
  ret i32 %3
}

; Function Attrs: mustprogress nounwind uwtable
define linkonce_odr hidden void @_ZN9EnumRangeIN13OopStorageSet8StrongIdEEC2ES1_S1_(ptr noundef nonnull align 4 dereferenceable(8) %0, i32 noundef %1, i32 noundef %2) unnamed_addr #1 comdat align 2 {
  %4 = alloca ptr, align 8
  %5 = alloca i32, align 4
  %6 = alloca i32, align 4
  store ptr %0, ptr %4, align 8
  store i32 %1, ptr %5, align 4
  store i32 %2, ptr %6, align 4
  %7 = load ptr, ptr %4, align 8
  %8 = getelementptr inbounds %class.EnumRange, ptr %7, i32 0, i32 0
  %9 = load i32, ptr %5, align 4
  %10 = call noundef i32 @_ZN19EnumIterationTraitsIN13OopStorageSet8StrongIdEE16underlying_valueES1_(i32 noundef %9)
  store i32 %10, ptr %8, align 4
  %11 = getelementptr inbounds %class.EnumRange, ptr %7, i32 0, i32 1
  %12 = load i32, ptr %6, align 4
  %13 = call noundef i32 @_ZN19EnumIterationTraitsIN13OopStorageSet8StrongIdEE16underlying_valueES1_(i32 noundef %12)
  store i32 %13, ptr %11, align 4
  %14 = load i32, ptr %5, align 4
  %15 = call noundef i32 @_ZN20PrimitiveConversions4castIN13OopStorageSet8StrongIdEjTnNSt9enable_ifIXcvbcl10check_castIT_T0_EEEiE4typeELi0ETnNS3_IXcvbsr3std7is_enumIS4_EE5valueEiE4typeELi0EEES4_S5_(i32 noundef 0)
  %16 = call noundef i32 @_ZN20PrimitiveConversions4castIN13OopStorageSet8StrongIdEjTnNSt9enable_ifIXcvbcl10check_castIT_T0_EEEiE4typeELi0ETnNS3_IXcvbsr3std7is_enumIS4_EE5valueEiE4typeELi0EEES4_S5_(i32 noundef 5)
  call void @_ZN19EnumIterationTraitsIN13OopStorageSet8StrongIdEE15assert_in_rangeIS1_EEvT_S4_S4_(i32 noundef %14, i32 noundef %15, i32 noundef %16)
  %17 = load i32, ptr %6, align 4
  %18 = call noundef i32 @_ZN20PrimitiveConversions4castIN13OopStorageSet8StrongIdEjTnNSt9enable_ifIXcvbcl10check_castIT_T0_EEEiE4typeELi0ETnNS3_IXcvbsr3std7is_enumIS4_EE5valueEiE4typeELi0EEES4_S5_(i32 noundef 0)
  %19 = call noundef i32 @_ZN20PrimitiveConversions4castIN13OopStorageSet8StrongIdEjTnNSt9enable_ifIXcvbcl10check_castIT_T0_EEEiE4typeELi0ETnNS3_IXcvbsr3std7is_enumIS4_EE5valueEiE4typeELi0EEES4_S5_(i32 noundef 5)
  call void @_ZN19EnumIterationTraitsIN13OopStorageSet8StrongIdEE15assert_in_rangeIS1_EEvT_S4_S4_(i32 noundef %17, i32 noundef %18, i32 noundef %19)
  ret void
}

; Function Attrs: mustprogress nounwind uwtable
define linkonce_odr hidden noundef nonnull align 4 dereferenceable(4) ptr @_ZN13OopStorageSet8IteratorINS_8StrongIdEEppEv(ptr noundef nonnull align 4 dereferenceable(4) %0) #1 comdat align 2 {
  %2 = alloca ptr, align 8
  store ptr %0, ptr %2, align 8
  %3 = load ptr, ptr %2, align 8
  %4 = getelementptr inbounds %"class.OopStorageSet::Iterator", ptr %3, i32 0, i32 0
  %5 = call noundef nonnull align 4 dereferenceable(4) ptr @_ZN12EnumIteratorIN13OopStorageSet8StrongIdEEppEv(ptr noundef nonnull align 4 dereferenceable(4) %4)
  ret ptr %3
}

; Function Attrs: mustprogress nounwind uwtable
define linkonce_odr hidden void @_ZN10OopStorage8ParStateILb0ELb0EEC2EPS_j(ptr noundef nonnull align 8 dereferenceable(48) %0, ptr noundef %1, i32 noundef %2) unnamed_addr #1 comdat align 2 {
  %4 = alloca ptr, align 8
  %5 = alloca ptr, align 8
  %6 = alloca i32, align 4
  store ptr %0, ptr %4, align 8
  store ptr %1, ptr %5, align 8
  store i32 %2, ptr %6, align 4
  %7 = load ptr, ptr %4, align 8
  %8 = getelementptr inbounds %"class.OopStorage::ParState", ptr %7, i32 0, i32 0
  %9 = load ptr, ptr %5, align 8
  %10 = load i32, ptr %6, align 4
  call void @_ZN10OopStorage13BasicParStateC1EPKS_jb(ptr noundef nonnull align 8 dereferenceable(48) %8, ptr noundef %9, i32 noundef %10, i1 noundef zeroext false)
  ret void
}

; Function Attrs: mustprogress nounwind uwtable
define linkonce_odr hidden noundef ptr @_ZNK13OopStorageSet8IteratorINS_8StrongIdEEdeEv(ptr noundef nonnull align 4 dereferenceable(4) %0) #1 comdat align 2 {
  %2 = alloca ptr, align 8
  store ptr %0, ptr %2, align 8
  %3 = load ptr, ptr %2, align 8
  %4 = getelementptr inbounds %"class.OopStorageSet::Iterator", ptr %3, i32 0, i32 0
  %5 = call noundef i32 @_ZNK12EnumIteratorIN13OopStorageSet8StrongIdEEdeEv(ptr noundef nonnull align 4 dereferenceable(4) %4)
  %6 = call noundef ptr @_ZN13OopStorageSet7storageENS_8StrongIdE(i32 noundef %5)
  ret ptr %6
}

; Function Attrs: mustprogress nounwind uwtable
define linkonce_odr hidden void @_ZN12EnumIteratorIN13OopStorageSet8StrongIdEEC2ES1_(ptr noundef nonnull align 4 dereferenceable(4) %0, i32 noundef %1) unnamed_addr #1 comdat align 2 {
  %3 = alloca ptr, align 8
  %4 = alloca i32, align 4
  store ptr %0, ptr %3, align 8
  store i32 %1, ptr %4, align 4
  %5 = load ptr, ptr %3, align 8
  %6 = getelementptr inbounds %class.EnumIterator, ptr %5, i32 0, i32 0
  %7 = load i32, ptr %4, align 4
  %8 = call noundef i32 @_ZN19EnumIterationTraitsIN13OopStorageSet8StrongIdEE16underlying_valueES1_(i32 noundef %7)
  store i32 %8, ptr %6, align 4
  %9 = load i32, ptr %4, align 4
  %10 = call noundef i32 @_ZN20PrimitiveConversions4castIN13OopStorageSet8StrongIdEjTnNSt9enable_ifIXcvbcl10check_castIT_T0_EEEiE4typeELi0ETnNS3_IXcvbsr3std7is_enumIS4_EE5valueEiE4typeELi0EEES4_S5_(i32 noundef 0)
  %11 = call noundef i32 @_ZN20PrimitiveConversions4castIN13OopStorageSet8StrongIdEjTnNSt9enable_ifIXcvbcl10check_castIT_T0_EEEiE4typeELi0ETnNS3_IXcvbsr3std7is_enumIS4_EE5valueEiE4typeELi0EEES4_S5_(i32 noundef 5)
  call void @_ZN19EnumIterationTraitsIN13OopStorageSet8StrongIdEE15assert_in_rangeIS1_EEvT_S4_S4_(i32 noundef %9, i32 noundef %10, i32 noundef %11)
  ret void
}

; Function Attrs: mustprogress nounwind uwtable
define linkonce_odr hidden void @_ZN9EnumRangeIN13OopStorageSet8StrongIdEEC2ES1_(ptr noundef nonnull align 4 dereferenceable(8) %0, i32 noundef %1) unnamed_addr #1 comdat align 2 {
  %3 = alloca ptr, align 8
  %4 = alloca i32, align 4
  store ptr %0, ptr %3, align 8
  store i32 %1, ptr %4, align 4
  %5 = load ptr, ptr %3, align 8
  %6 = load i32, ptr %4, align 4
  %7 = call noundef i32 @_ZN19EnumIterationTraitsIN13OopStorageSet8StrongIdEE10enumeratorEj(i32 noundef 5)
  call void @_ZN9EnumRangeIN13OopStorageSet8StrongIdEEC2ES1_S1_(ptr noundef nonnull align 4 dereferenceable(8) %5, i32 noundef %6, i32 noundef %7)
  ret void
}

; Function Attrs: mustprogress nounwind uwtable
define linkonce_odr hidden noundef i32 @_ZN19EnumIterationTraitsIN13OopStorageSet8StrongIdEE10enumeratorEj(i32 noundef %0) #1 comdat align 2 {
  %2 = alloca i32, align 4
  store i32 %0, ptr %2, align 4
  %3 = load i32, ptr %2, align 4
  ret i32 %3
}

; Function Attrs: mustprogress nounwind uwtable
define linkonce_odr hidden void @_ZN13ValueObjBlockIN10OopStorage8ParStateILb0ELb0EEELi5EEC2IN13OopStorageSet8IteratorINS5_8StrongIdEEEEET_PPS2_(ptr noundef nonnull align 8 dereferenceable(248) %0, i32 %1, ptr noundef %2) unnamed_addr #1 comdat align 2 {
  %4 = alloca %"class.OopStorageSet::Iterator", align 4
  %5 = alloca ptr, align 8
  %6 = alloca ptr, align 8
  %7 = alloca %"class.OopStorageSet::Iterator", align 4
  %8 = getelementptr inbounds %"class.OopStorageSet::Iterator", ptr %4, i32 0, i32 0
  %9 = getelementptr inbounds %class.EnumIterator, ptr %8, i32 0, i32 0
  store i32 %1, ptr %9, align 4
  store ptr %0, ptr %5, align 8
  store ptr %2, ptr %6, align 8
  %10 = load ptr, ptr %5, align 8
  %11 = getelementptr inbounds %class.ValueObjBlock, ptr %10, i32 0, i32 0
  %12 = call noundef ptr @_ZNK13OopStorageSet8IteratorINS_8StrongIdEEdeEv(ptr noundef nonnull align 4 dereferenceable(4) %4)
  %13 = call noundef i32 @_ZN10OopStorage13BasicParState30default_estimated_thread_countEb(i1 noundef zeroext false)
  call void @_ZN10OopStorage8ParStateILb0ELb0EEC2EPS_j(ptr noundef nonnull align 8 dereferenceable(48) %11, ptr noundef %12, i32 noundef %13)
  %14 = getelementptr inbounds %class.ValueObjBlock, ptr %10, i32 0, i32 1
  %15 = call noundef nonnull align 4 dereferenceable(4) ptr @_ZN13OopStorageSet8IteratorINS_8StrongIdEEppEv(ptr noundef nonnull align 4 dereferenceable(4) %4)
  call void @llvm.memcpy.p0.p0.i64(ptr align 4 %7, ptr align 4 %15, i64 4, i1 false)
  %16 = load ptr, ptr %6, align 8
  %17 = getelementptr inbounds ptr, ptr %16, i64 1
  %18 = getelementptr inbounds %"class.OopStorageSet::Iterator", ptr %7, i32 0, i32 0
  %19 = getelementptr inbounds %class.EnumIterator, ptr %18, i32 0, i32 0
  %20 = load i32, ptr %19, align 4
  call void @_ZN13ValueObjBlockIN10OopStorage8ParStateILb0ELb0EEELi4EEC2IN13OopStorageSet8IteratorINS5_8StrongIdEEEEET_PPS2_(ptr noundef nonnull align 8 dereferenceable(200) %14, i32 %20, ptr noundef %17)
  %21 = getelementptr inbounds %class.ValueObjBlock, ptr %10, i32 0, i32 0
  %22 = load ptr, ptr %6, align 8
  store ptr %21, ptr %22, align 8
  ret void
}

; Function Attrs: mustprogress nounwind uwtable
define linkonce_odr hidden void @_ZN13OopStorageSet8IteratorINS_8StrongIdEEC2E12EnumIteratorIS1_E(ptr noundef nonnull align 4 dereferenceable(4) %0, i32 %1) unnamed_addr #1 comdat align 2 {
  %3 = alloca %class.EnumIterator, align 4
  %4 = alloca ptr, align 8
  %5 = getelementptr inbounds %class.EnumIterator, ptr %3, i32 0, i32 0
  store i32 %1, ptr %5, align 4
  store ptr %0, ptr %4, align 8
  %6 = load ptr, ptr %4, align 8
  %7 = getelementptr inbounds %"class.OopStorageSet::Iterator", ptr %6, i32 0, i32 0
  call void @llvm.memcpy.p0.p0.i64(ptr align 4 %7, ptr align 4 %3, i64 4, i1 false)
  ret void
}

; Function Attrs: mustprogress nounwind uwtable
define linkonce_odr hidden i32 @_ZNK9EnumRangeIN13OopStorageSet8StrongIdEE5beginEv(ptr noundef nonnull align 4 dereferenceable(8) %0) #1 comdat align 2 {
  %2 = alloca %class.EnumIterator, align 4
  %3 = alloca ptr, align 8
  store ptr %0, ptr %3, align 8
  %4 = load ptr, ptr %3, align 8
  %5 = getelementptr inbounds %class.EnumRange, ptr %4, i32 0, i32 0
  %6 = load i32, ptr %5, align 4
  %7 = call noundef i32 @_ZN19EnumIterationTraitsIN13OopStorageSet8StrongIdEE10enumeratorEj(i32 noundef %6)
  call void @_ZN12EnumIteratorIN13OopStorageSet8StrongIdEEC2ES1_(ptr noundef nonnull align 4 dereferenceable(4) %2, i32 noundef %7)
  %8 = getelementptr inbounds %class.EnumIterator, ptr %2, i32 0, i32 0
  %9 = load i32, ptr %8, align 4
  ret i32 %9
}

; Function Attrs: mustprogress nounwind uwtable
define linkonce_odr hidden void @_ZN9EnumRangeIN13OopStorageSet8StrongIdEEC2Ev(ptr noundef nonnull align 4 dereferenceable(8) %0) unnamed_addr #1 comdat align 2 {
  %2 = alloca ptr, align 8
  store ptr %0, ptr %2, align 8
  %3 = load ptr, ptr %2, align 8
  %4 = call noundef i32 @_ZN19EnumIterationTraitsIN13OopStorageSet8StrongIdEE10enumeratorEj(i32 noundef 0)
  call void @_ZN9EnumRangeIN13OopStorageSet8StrongIdEEC2ES1_(ptr noundef nonnull align 4 dereferenceable(8) %3, i32 noundef %4)
  ret void
}

; Function Attrs: mustprogress nounwind uwtable
define linkonce_odr hidden void @_ZN13ValueObjArrayIN10OopStorage8ParStateILb0ELb0EEELi5EEC2IN13OopStorageSet8IteratorINS5_8StrongIdEEEEET_(ptr noundef nonnull align 8 dereferenceable(288) %0, i32 %1) unnamed_addr #1 comdat align 2 {
  %3 = alloca %"class.OopStorageSet::Iterator", align 4
  %4 = alloca ptr, align 8
  %5 = alloca %"class.OopStorageSet::Iterator", align 4
  %6 = getelementptr inbounds %"class.OopStorageSet::Iterator", ptr %3, i32 0, i32 0
  %7 = getelementptr inbounds %class.EnumIterator, ptr %6, i32 0, i32 0
  store i32 %1, ptr %7, align 4
  store ptr %0, ptr %4, align 8
  %8 = load ptr, ptr %4, align 8
  %9 = getelementptr inbounds %struct.ValueObjArray, ptr %8, i32 0, i32 0
  call void @llvm.memset.p0.i64(ptr align 8 %9, i8 0, i64 40, i1 false)
  %10 = getelementptr inbounds %struct.ValueObjArray, ptr %8, i32 0, i32 1
  call void @llvm.memcpy.p0.p0.i64(ptr align 4 %5, ptr align 4 %3, i64 4, i1 false)
  %11 = getelementptr inbounds %struct.ValueObjArray, ptr %8, i32 0, i32 0
  %12 = getelementptr inbounds [5 x ptr], ptr %11, i64 0, i64 0
  %13 = getelementptr inbounds %"class.OopStorageSet::Iterator", ptr %5, i32 0, i32 0
  %14 = getelementptr inbounds %class.EnumIterator, ptr %13, i32 0, i32 0
  %15 = load i32, ptr %14, align 4
  call void @_ZN13ValueObjBlockIN10OopStorage8ParStateILb0ELb0EEELi5EEC2IN13OopStorageSet8IteratorINS5_8StrongIdEEEEET_PPS2_(ptr noundef nonnull align 8 dereferenceable(248) %10, i32 %15, ptr noundef %12)
  ret void
}

; Function Attrs: mustprogress nounwind uwtable
define linkonce_odr hidden i32 @_ZNK13OopStorageSet5RangeINS_8StrongIdEE5beginEv(ptr noundef nonnull align 4 dereferenceable(8) %0) #1 comdat align 2 {
  %2 = alloca %"class.OopStorageSet::Iterator", align 4
  %3 = alloca ptr, align 8
  %4 = alloca %class.EnumIterator, align 4
  store ptr %0, ptr %3, align 8
  %5 = load ptr, ptr %3, align 8
  %6 = getelementptr inbounds %"class.OopStorageSet::Range", ptr %5, i32 0, i32 0
  %7 = call i32 @_ZNK9EnumRangeIN13OopStorageSet8StrongIdEE5beginEv(ptr noundef nonnull align 4 dereferenceable(8) %6)
  %8 = getelementptr inbounds %class.EnumIterator, ptr %4, i32 0, i32 0
  store i32 %7, ptr %8, align 4
  %9 = getelementptr inbounds %class.EnumIterator, ptr %4, i32 0, i32 0
  %10 = load i32, ptr %9, align 4
  call void @_ZN13OopStorageSet8IteratorINS_8StrongIdEEC2E12EnumIteratorIS1_E(ptr noundef nonnull align 4 dereferenceable(4) %2, i32 %10)
  %11 = getelementptr inbounds %"class.OopStorageSet::Iterator", ptr %2, i32 0, i32 0
  %12 = getelementptr inbounds %class.EnumIterator, ptr %11, i32 0, i32 0
  %13 = load i32, ptr %12, align 4
  ret i32 %13
}

; Function Attrs: mustprogress nounwind uwtable
define linkonce_odr hidden void @_ZN13OopStorageSet5RangeINS_8StrongIdEEC2Ev(ptr noundef nonnull align 4 dereferenceable(8) %0) unnamed_addr #1 comdat align 2 {
  %2 = alloca ptr, align 8
  store ptr %0, ptr %2, align 8
  %3 = load ptr, ptr %2, align 8
  %4 = getelementptr inbounds %"class.OopStorageSet::Range", ptr %3, i32 0, i32 0
  call void @_ZN9EnumRangeIN13OopStorageSet8StrongIdEEC2Ev(ptr noundef nonnull align 4 dereferenceable(8) %4)
  ret void
}

; Function Attrs: mustprogress nounwind uwtable
define linkonce_odr hidden void @_ZN21OopStorageSetParStateIN13OopStorageSet8StrongIdELb0ELb0EEC2Ev(ptr noundef nonnull align 8 dereferenceable(288) %0) unnamed_addr #1 comdat align 2 {
  %2 = alloca ptr, align 8
  %3 = alloca %"class.OopStorageSet::Iterator", align 4
  %4 = alloca %"class.OopStorageSet::Range", align 4
  store ptr %0, ptr %2, align 8
  %5 = load ptr, ptr %2, align 8
  %6 = getelementptr inbounds %class.OopStorageSetParState, ptr %5, i32 0, i32 0
  call void @llvm.memset.p0.i64(ptr align 4 %4, i8 0, i64 8, i1 false)
  call void @_ZN13OopStorageSet5RangeINS_8StrongIdEEC2Ev(ptr noundef nonnull align 4 dereferenceable(8) %4)
  %7 = call i32 @_ZNK13OopStorageSet5RangeINS_8StrongIdEE5beginEv(ptr noundef nonnull align 4 dereferenceable(8) %4)
  %8 = getelementptr inbounds %"class.OopStorageSet::Iterator", ptr %3, i32 0, i32 0
  %9 = getelementptr inbounds %class.EnumIterator, ptr %8, i32 0, i32 0
  store i32 %7, ptr %9, align 4
  %10 = getelementptr inbounds %"class.OopStorageSet::Iterator", ptr %3, i32 0, i32 0
  %11 = getelementptr inbounds %class.EnumIterator, ptr %10, i32 0, i32 0
  %12 = load i32, ptr %11, align 4
  call void @_ZN13ValueObjArrayIN10OopStorage8ParStateILb0ELb0EEELi5EEC2IN13OopStorageSet8IteratorINS5_8StrongIdEEEEET_(ptr noundef nonnull align 8 dereferenceable(288) %6, i32 %12)
  ret void
}

; Function Attrs: mustprogress nounwind uwtable
define linkonce_odr hidden void @_ZN27OopStorageSetStrongParStateILb0ELb0EEC2Ev(ptr noundef nonnull align 8 dereferenceable(288) %0) unnamed_addr #1 comdat align 2 {
  %2 = alloca ptr, align 8
  store ptr %0, ptr %2, align 8
  %3 = load ptr, ptr %2, align 8
  call void @_ZN21OopStorageSetParStateIN13OopStorageSet8StrongIdELb0ELb0EEC2Ev(ptr noundef nonnull align 8 dereferenceable(288) %3)
  ret void
}

; Function Attrs: mustprogress nounwind uwtable
define hidden void @_ZN15G1RootProcessorC2EP15G1CollectedHeapj(ptr noundef nonnull align 8 dereferenceable(320) %0, ptr noundef %1, i32 noundef %2) unnamed_addr #1 align 2 {
  %4 = alloca ptr, align 8
  %5 = alloca ptr, align 8
  %6 = alloca i32, align 4
  store ptr %0, ptr %4, align 8
  store ptr %1, ptr %5, align 8
  store i32 %2, ptr %6, align 4
  %7 = load ptr, ptr %4, align 8
  %8 = getelementptr inbounds %class.G1RootProcessor, ptr %7, i32 0, i32 0
  %9 = load ptr, ptr %5, align 8
  store ptr %9, ptr %8, align 8
  %10 = getelementptr inbounds %class.G1RootProcessor, ptr %7, i32 0, i32 1
  call void @_ZN12SubTasksDoneC1Ej(ptr noundef nonnull align 8 dereferenceable(12) %10, i32 noundef 3)
  %11 = getelementptr inbounds %class.G1RootProcessor, ptr %7, i32 0, i32 2
  %12 = load i32, ptr %6, align 4
  call void @_ZN16StrongRootsScopeC1Ej(ptr noundef nonnull align 4 dereferenceable(4) %11, i32 noundef %12)
  %13 = getelementptr inbounds %class.G1RootProcessor, ptr %7, i32 0, i32 3
  call void @_ZN27OopStorageSetStrongParStateILb0ELb0EEC2Ev(ptr noundef nonnull align 8 dereferenceable(288) %13)
  ret void
}