; Function Attrs: mustprogress nounwind uwtable
define hidden void @_ZN15G1RootProcessorC2EP15G1CollectedHeapj(ptr noundef nonnull align 8 dereferenceable(320) %0, ptr noundef %1, i32 noundef %2) unnamed_addr #0 align 2 {
  store ptr %1, ptr %0, align 8
  %4 = getelementptr inbounds i8, ptr %0, i64 8
  tail call void @_ZN12SubTasksDoneC1Ej(ptr noundef nonnull align 8 dereferenceable(12) %4, i32 noundef 3) #10
  %5 = getelementptr inbounds i8, ptr %0, i64 24
  tail call void @_ZN16StrongRootsScopeC1Ej(ptr noundef nonnull align 4 dereferenceable(4) %5, i32 noundef %2) #10
  %6 = getelementptr inbounds i8, ptr %0, i64 32
  tail call void @llvm.memset.p0.i64(ptr noundef nonnull align 8 dereferenceable(40) %6, i8 0, i64 40, i1 false)
  %7 = getelementptr inbounds i8, ptr %0, i64 72
  %8 = tail call noundef ptr @_ZN13OopStorageSet11get_storageINS_8StrongIdEEEP10OopStorageT_(i32 noundef 0) #10
  %9 = tail call noundef i32 @_ZN10OopStorage13BasicParState30default_estimated_thread_countEb(i1 noundef zeroext false) #10
  tail call void @_ZN10OopStorage13BasicParStateC1EPKS_jb(ptr noundef nonnull align 8 dereferenceable(48) %7, ptr noundef %8, i32 noundef %9, i1 noundef zeroext false) #10
  %10 = getelementptr inbounds i8, ptr %0, i64 120
  %11 = getelementptr inbounds i8, ptr %0, i64 40
  tail call void @_ZN13ValueObjBlockIN10OopStorage8ParStateILb0ELb0EEELi4EEC2IN13OopStorageSet8IteratorINS5_8StrongIdEEEEET_PPS2_(ptr noundef nonnull align 8 dereferenceable(200) %10, i32 1, ptr noundef nonnull %11)
  store ptr %7, ptr %6, align 8
  ret void
}